; ModuleID = 'source-C-CXX/22/738.c'
source_filename = "source-C-CXX/22/738.c"
target datalayout = "e-m:e-p270:32:32-p271:32:32-p272:64:64-i64:64-f80:128-n8:16:32:64-S128"
target triple = "x86_64-pc-linux-gnu"

@.str = private unnamed_addr constant [4 x i8] c"%s \00", align 1

; Function Attrs: nounwind sspstrong uwtable
define dso_local void @main() local_unnamed_addr #0 {
  %1 = alloca [101 x i8], align 16
  %2 = alloca [100 x [100 x i8]], align 16
  %3 = alloca [100 x [100 x i8]], align 16
  %4 = getelementptr inbounds [101 x i8], [101 x i8]* %1, i64 0, i64 0
  call void @llvm.lifetime.start.p0i8(i64 101, i8* nonnull %4) #8
  call void @llvm.memset.p0i8.i64(i8* noundef nonnull align 16 dereferenceable(101) %4, i8 0, i64 101, i1 false)
  %5 = getelementptr inbounds [100 x [100 x i8]], [100 x [100 x i8]]* %2, i64 0, i64 0, i64 0
  call void @llvm.lifetime.start.p0i8(i64 10000, i8* nonnull %5) #8
  call void @llvm.memset.p0i8.i64(i8* noundef nonnull align 16 dereferenceable(10000) %5, i8 0, i64 10000, i1 false)
  %6 = getelementptr inbounds [100 x [100 x i8]], [100 x [100 x i8]]* %3, i64 0, i64 0, i64 0
  call void @llvm.lifetime.start.p0i8(i64 10000, i8* nonnull %6) #8
  call void @llvm.memset.p0i8.i64(i8* noundef nonnull align 16 dereferenceable(10000) %6, i8 0, i64 10000, i1 false)
  %7 = call i32 (i8*, ...) bitcast (i32 (...)* @gets to i32 (i8*, ...)*)(i8* nonnull %4) #8
  %8 = call i64 @strlen(i8* noundef nonnull %4) #9
  %9 = shl i64 %8, 32
  %10 = ashr exact i64 %9, 32
  %11 = getelementptr inbounds [101 x i8], [101 x i8]* %1, i64 0, i64 %10
  store i8 32, i8* %11, align 1, !tbaa !5
  %12 = add i64 %9, 4294967296
  %13 = ashr exact i64 %12, 32
  %14 = getelementptr inbounds [101 x i8], [101 x i8]* %1, i64 0, i64 %13
  store i8 32, i8* %14, align 1, !tbaa !5
  br label %15

15:                                               ; preds = %46, %0
  %16 = phi i32 [ 0, %0 ], [ %50, %46 ]
  %17 = phi i32 [ 0, %0 ], [ %48, %46 ]
  %18 = phi i32 [ 0, %0 ], [ %49, %46 ]
  %19 = sext i32 %16 to i64
  %20 = getelementptr inbounds [101 x i8], [101 x i8]* %1, i64 0, i64 %19
  %21 = load i8, i8* %20, align 1, !tbaa !5
  switch i8 %21, label %46 [
    i8 0, label %22
    i8 32, label %28
  ]

22:                                               ; preds = %15
  %23 = icmp sgt i32 %18, 0
  br i1 %23, label %26, label %24

24:                                               ; preds = %22
  %25 = add i32 %18, -1
  br label %73

26:                                               ; preds = %22
  %27 = zext i32 %18 to i64
  br label %56

28:                                               ; preds = %15
  %29 = sext i32 %17 to i64
  %30 = getelementptr inbounds [100 x [100 x i8]], [100 x [100 x i8]]* %2, i64 0, i64 %29, i64 0
  %31 = call i8* @strncpy(i8* noundef nonnull %30, i8* nonnull %4, i64 %19) #8
  br label %32

32:                                               ; preds = %32, %28
  %33 = phi i64 [ %34, %32 ], [ %19, %28 ]
  %34 = add nsw i64 %33, 1
  %35 = getelementptr inbounds [101 x i8], [101 x i8]* %1, i64 0, i64 %34
  %36 = load i8, i8* %35, align 1, !tbaa !5
  %37 = trunc i64 %33 to i32
  %38 = sub i32 %37, %16
  %39 = sext i32 %38 to i64
  %40 = getelementptr inbounds [101 x i8], [101 x i8]* %1, i64 0, i64 %39
  store i8 %36, i8* %40, align 1, !tbaa !5
  %41 = load i8, i8* %35, align 1, !tbaa !5
  %42 = icmp eq i8 %41, 0
  br i1 %42, label %43, label %32

43:                                               ; preds = %32
  %44 = add nsw i32 %17, 1
  %45 = add nsw i32 %18, 1
  br label %46

46:                                               ; preds = %15, %43
  %47 = phi i32 [ 0, %43 ], [ %16, %15 ]
  %48 = phi i32 [ %44, %43 ], [ %17, %15 ]
  %49 = phi i32 [ %45, %43 ], [ %18, %15 ]
  %50 = add nsw i32 %47, 1
  br label %15

51:                                               ; preds = %56
  %52 = add i32 %18, -1
  %53 = icmp sgt i32 %18, 1
  br i1 %53, label %54, label %73

54:                                               ; preds = %51
  %55 = zext i32 %52 to i64
  br label %67

56:                                               ; preds = %26, %56
  %57 = phi i64 [ 0, %26 ], [ %65, %56 ]
  %58 = getelementptr inbounds [100 x [100 x i8]], [100 x [100 x i8]]* %3, i64 0, i64 %57, i64 0
  %59 = trunc i64 %57 to i32
  %60 = xor i32 %59, -1
  %61 = add i32 %18, %60
  %62 = sext i32 %61 to i64
  %63 = getelementptr inbounds [100 x [100 x i8]], [100 x [100 x i8]]* %2, i64 0, i64 %62, i64 0
  %64 = call i8* @strcpy(i8* noundef nonnull %58, i8* noundef nonnull %63) #8
  %65 = add nuw nsw i64 %57, 1
  %66 = icmp eq i64 %65, %27
  br i1 %66, label %51, label %56, !llvm.loop !8

67:                                               ; preds = %54, %67
  %68 = phi i64 [ 0, %54 ], [ %71, %67 ]
  %69 = getelementptr inbounds [100 x [100 x i8]], [100 x [100 x i8]]* %3, i64 0, i64 %68, i64 0
  %70 = call i32 (i8*, ...) @printf(i8* nonnull dereferenceable(1) getelementptr inbounds ([4 x i8], [4 x i8]* @.str, i64 0, i64 0), i8* nonnull %69)
  %71 = add nuw nsw i64 %68, 1
  %72 = icmp eq i64 %71, %55
  br i1 %72, label %73, label %67, !llvm.loop !10

73:                                               ; preds = %67, %24, %51
  %74 = phi i32 [ %25, %24 ], [ %52, %51 ], [ %52, %67 ]
  %75 = sext i32 %74 to i64
  %76 = getelementptr inbounds [100 x [100 x i8]], [100 x [100 x i8]]* %3, i64 0, i64 %75, i64 0
  %77 = call i32 @puts(i8* nonnull %76)
  call void @llvm.lifetime.end.p0i8(i64 10000, i8* nonnull %6) #8
  call void @llvm.lifetime.end.p0i8(i64 10000, i8* nonnull %5) #8
  call void @llvm.lifetime.end.p0i8(i64 101, i8* nonnull %4) #8
  ret void
}

; Function Attrs: argmemonly mustprogress nofree nosync nounwind willreturn
declare void @llvm.lifetime.start.p0i8(i64 immarg, i8* nocapture) #1

; Function Attrs: argmemonly mustprogress nofree nounwind willreturn writeonly
declare void @llvm.memset.p0i8.i64(i8* nocapture writeonly, i8, i64, i1 immarg) #2

declare i32 @gets(...) local_unnamed_addr #3

; Function Attrs: argmemonly mustprogress nofree nounwind readonly willreturn
declare i64 @strlen(i8* nocapture) local_unnamed_addr #4

; Function Attrs: argmemonly mustprogress nofree nounwind willreturn
declare i8* @strncpy(i8* noalias returned writeonly, i8* noalias nocapture readonly, i64) local_unnamed_addr #5

; Function Attrs: argmemonly mustprogress nofree nounwind willreturn
declare i8* @strcpy(i8* noalias returned writeonly, i8* noalias nocapture readonly) local_unnamed_addr #5

; Function Attrs: nofree nounwind
declare noundef i32 @printf(i8* nocapture noundef readonly, ...) local_unnamed_addr #6

; Function Attrs: argmemonly mustprogress nofree nosync nounwind willreturn
declare void @llvm.lifetime.end.p0i8(i64 immarg, i8* nocapture) #1

; Function Attrs: nofree nounwind
declare noundef i32 @puts(i8* nocapture noundef readonly) local_unnamed_addr #7


!llvm.module.flags = !{!0, !1, !2, !3}
!llvm.ident = !{!4}

!0 = !{i32 1, !"wchar_size", i32 4}
!1 = !{i32 7, !"PIC Level", i32 2}
!2 = !{i32 7, !"PIE Level", i32 2}
!3 = !{i32 7, !"uwtable", i32 1}
!4 = !{!"clang version 13.0.0"}
!5 = !{!6, !6, i64 0}
!6 = !{!"omnipotent char", !7, i64 0}
!7 = !{!"Simple C/C++ TBAA"}
!8 = distinct !{!8, !9}
!9 = !{!"llvm.loop.mustprogress"}
!10 = distinct !{!10, !9}
